; Function Attrs: null_pointer_is_valid sspstrong uwtable
define internal i32 @rs_pgo_dissect_get_members_rqst(ptr noundef %0, i32 noundef %1, ptr noundef %2, ptr noundef %3, ptr noundef %4, ptr noundef %5) #0 {
  %7 = alloca ptr, align 8
  %8 = alloca i32, align 4
  %9 = alloca i32, align 4
  call void @llvm.lifetime.start.p0(i64 4, ptr nonnull %9) #3
  %10 = getelementptr inbounds nuw i8, ptr %4, i64 25
  %11 = load i8, ptr %10, align 1, !range !6, !noundef !7
  %12 = trunc nuw i8 %11 to i1
  br i1 %12, label %31, label %13

13:                                               ; preds = %6
  call void @llvm.lifetime.start.p0(i64 8, ptr nonnull %7) #3
  store ptr null, ptr %7, align 8
  call void @llvm.lifetime.start.p0(i64 4, ptr nonnull %8) #3
  %.not.i = icmp eq ptr %3, null
  br i1 %.not.i, label %dissect_sec_rgy_domain_t.exit, label %14

14:                                               ; preds = %13
  %15 = load i32, ptr @ett_sec_rgy_domain_t, align 4
  %16 = call ptr @proto_tree_add_subtree(ptr noundef nonnull %3, ptr noundef %0, i32 noundef %1, i32 noundef -1, i32 noundef %15, ptr noundef nonnull %7, ptr noundef nonnull @.str.49)
  br label %dissect_sec_rgy_domain_t.exit

dissect_sec_rgy_domain_t.exit:                    ; preds = %13, %14
  %.017.i = phi ptr [ %16, %14 ], [ null, %13 ]
  %17 = load i32, ptr @hf_sec_rgy_domain_t, align 4
  %18 = call i32 @dissect_ndr_uint32(ptr noundef %0, i32 noundef %1, ptr noundef %2, ptr noundef %.017.i, ptr noundef %4, ptr noundef %5, i32 noundef %17, ptr noundef nonnull %8)
  %19 = getelementptr inbounds nuw i8, ptr %2, i64 8
  %20 = load ptr, ptr %19, align 8
  %21 = load i32, ptr %8, align 4
  call void (ptr, i32, ptr, ...) @col_append_fstr(ptr noundef %20, i32 noundef 25, ptr noundef nonnull @.str.50, i32 noundef %21)
  %22 = load ptr, ptr %7, align 8
  %23 = sub i32 %18, %1
  call void @proto_item_set_len(ptr noundef %22, i32 noundef %23)
  call void @llvm.lifetime.end.p0(i64 4, ptr nonnull %8) #3
  call void @llvm.lifetime.end.p0(i64 8, ptr nonnull %7) #3
  %24 = add i32 %18, 4
  %25 = call fastcc i32 @dissect_sec_rgy_name_t(ptr noundef %0, i32 noundef %24, ptr noundef %2, ptr noundef %3, ptr noundef %4, ptr noundef %5)
  %26 = call i32 @dissect_ndr_pointer(ptr noundef %0, i32 noundef %25, ptr noundef %2, ptr noundef %3, ptr noundef %4, ptr noundef %5, ptr noundef nonnull @dissect_sec_rgy_cursor_t, i32 noundef 1, ptr noundef nonnull @.str.97, i32 noundef -1)
  %27 = load i32, ptr @hf_rs_var1, align 4
  %28 = call i32 @dissect_ndr_uint32(ptr noundef %0, i32 noundef %26, ptr noundef %2, ptr noundef %3, ptr noundef %4, ptr noundef %5, i32 noundef %27, ptr noundef nonnull %9)
  %29 = load ptr, ptr %19, align 8
  %30 = load i32, ptr %9, align 4
  call void (ptr, i32, ptr, ...) @col_append_fstr(ptr noundef %29, i32 noundef 25, ptr noundef nonnull @.str.98, i32 noundef %30)
  br label %31

31:                                               ; preds = %6, %dissect_sec_rgy_domain_t.exit
  %.0 = phi i32 [ %28, %dissect_sec_rgy_domain_t.exit ], [ %1, %6 ]
  call void @llvm.lifetime.end.p0(i64 4, ptr nonnull %9) #3
  ret i32 %.0
}